target datalayout = "e-m:e-p270:32:32-p271:32:32-p272:64:64-i64:64-i128:128-f80:128-n8:16:32:64-S128"
target triple = "x86_64-pc-linux-gnu"

%struct.text_import_info_t = type { ptr, ptr, i32, %struct.anon, %struct.anon.0, ptr, i32, ptr, i32, i32, i8, %union.anon, %union.anon.1, i32, i32, i32, i32, i32, ptr, i32, i32, i32 }
%struct.anon = type { ptr, i32, i8, i8, i8 }
%struct.anon.0 = type { ptr, ptr, i32, ptr, ptr }
%union.anon = type { i32, [12 x i8] }
%union.anon.1 = type { i32, [12 x i8] }
%struct.plain_decoding_data = type { ptr, i32, i16, [256 x i8] }

@packet_buf = internal global ptr null, align 8
@curr_offset = internal global i32 0, align 4
@info_p = internal global ptr null, align 8
@.str = private unnamed_addr constant [5 x i8] c"Main\00", align 1
@.str.1 = private unnamed_addr constant [17 x i8] c"ui/text_import.c\00", align 1
@__func__.parse_data = private unnamed_addr constant [11 x i8] c"parse_data\00", align 1
@.str.2 = private unnamed_addr constant [38 x i8] c"not implemented/invalid encoding type\00", align 1
@.str.24 = private unnamed_addr constant [27 x i8] c"Unexpected char %d in data\00", align 1

; Function Attrs: null_pointer_is_valid sspstrong uwtable
define internal i32 @parse_plain_data(ptr noundef %0, ptr noundef %1, ptr noundef %2, ptr noundef %3, ptr noundef %4, ptr noundef %5) #0 {
  %7 = alloca ptr, align 8
  %8 = alloca ptr, align 8
  %9 = alloca ptr, align 8
  %10 = alloca ptr, align 8
  %11 = alloca ptr, align 8
  %12 = alloca ptr, align 8
  %13 = alloca i32, align 4
  %14 = alloca i32, align 4
  %15 = alloca i64, align 8
  %16 = alloca i32, align 4
  %17 = alloca i64, align 8
  %18 = alloca i32, align 4
  %19 = alloca ptr, align 8
  store ptr %0, ptr %7, align 8
  store ptr %1, ptr %8, align 8
  store ptr %2, ptr %9, align 8
  store ptr %3, ptr %10, align 8
  store ptr %4, ptr %11, align 8
  store ptr %5, ptr %12, align 8
  call void @llvm.lifetime.start.p0(i64 4, ptr %13) #15
  store i32 1, ptr %13, align 4
  call void @llvm.lifetime.start.p0(i64 4, ptr %14) #15
  store i32 0, ptr %14, align 4
  call void @llvm.lifetime.start.p0(i64 8, ptr %15) #15
  store i64 0, ptr %15, align 8
  call void @llvm.lifetime.start.p0(i64 4, ptr %16) #15
  store i32 0, ptr %16, align 4
  call void @llvm.lifetime.start.p0(i64 8, ptr %17) #15
  call void @llvm.lifetime.start.p0(i64 4, ptr %18) #15
  %20 = call i32 @ws_log_get_level()
  %21 = icmp uge i32 %20, 1
  br i1 %21, label %22, label %36

22:                                               ; preds = %6
  call void @llvm.lifetime.start.p0(i64 8, ptr %19) #15
  %23 = load ptr, ptr %7, align 8
  %24 = load ptr, ptr %23, align 8
  %25 = load ptr, ptr %8, align 8
  %26 = load ptr, ptr %7, align 8
  %27 = load ptr, ptr %26, align 8
  %28 = ptrtoint ptr %25 to i64
  %29 = ptrtoint ptr %27 to i64
  %30 = sub i64 %28, %29
  %31 = call noalias ptr @wmem_strndup(ptr noundef null, ptr noundef %24, i64 noundef %30)
  store ptr %31, ptr %19, align 8
  br label %32

32:                                               ; preds = %22
  br label %33

33:                                               ; preds = %32
  br label %34

34:                                               ; preds = %33
  %35 = load ptr, ptr %19, align 8
  call void @wmem_free(ptr noundef null, ptr noundef %35)
  call void @llvm.lifetime.end.p0(i64 8, ptr %19) #15
  br label %36

36:                                               ; preds = %34, %6
  br label %37

37:                                               ; preds = %127, %36
  %38 = load ptr, ptr %7, align 8
  %39 = load ptr, ptr %38, align 8
  %40 = load ptr, ptr %8, align 8
  %41 = icmp ult ptr %39, %40
  br i1 %41, label %42, label %54

42:                                               ; preds = %37
  %43 = load ptr, ptr %9, align 8
  %44 = load ptr, ptr %43, align 8
  %45 = load ptr, ptr %11, align 8
  %46 = getelementptr inbounds nuw %struct.plain_decoding_data, ptr %45, i32 0, i32 2
  %47 = load i16, ptr %46, align 4
  %48 = and i16 %47, 7
  %49 = zext i16 %48 to i32
  %50 = sext i32 %49 to i64
  %51 = getelementptr i8, ptr %44, i64 %50
  %52 = load ptr, ptr %10, align 8
  %53 = icmp ule ptr %51, %52
  br label %54

54:                                               ; preds = %42, %37
  %55 = phi i1 [ false, %37 ], [ %53, %42 ]
  br i1 %55, label %56, label %131

56:                                               ; preds = %54
  %57 = load ptr, ptr %11, align 8
  %58 = getelementptr inbounds nuw %struct.plain_decoding_data, ptr %57, i32 0, i32 3
  %59 = load ptr, ptr %7, align 8
  %60 = load ptr, ptr %59, align 8
  %61 = load i8, ptr %60, align 1
  %62 = zext i8 %61 to i64
  %63 = getelementptr [256 x i8], ptr %58, i64 0, i64 %62
  %64 = load i8, ptr %63, align 1
  %65 = sext i8 %64 to i64
  store i64 %65, ptr %17, align 8
  %66 = load i64, ptr %17, align 8
  switch i64 %66, label %72 [
    i64 -1, label %67
    i64 -2, label %127
  ]

67:                                               ; preds = %56
  %68 = load ptr, ptr %7, align 8
  %69 = load ptr, ptr %68, align 8
  %70 = load i8, ptr %69, align 1
  %71 = zext i8 %70 to i32
  call void (ptr, ...) @report_failure(ptr noundef @.str.24, i32 noundef %71)
  store i32 -1, ptr %13, align 4
  br label %132

72:                                               ; preds = %56
  %73 = load i64, ptr %15, align 8
  %74 = load ptr, ptr %11, align 8
  %75 = getelementptr inbounds nuw %struct.plain_decoding_data, ptr %74, i32 0, i32 2
  %76 = load i16, ptr %75, align 4
  %77 = lshr i16 %76, 3
  %78 = and i16 %77, 63
  %79 = zext i16 %78 to i32
  %80 = zext i32 %79 to i64
  %81 = shl i64 %73, %80
  %82 = load i64, ptr %17, align 8
  %83 = or i64 %81, %82
  store i64 %83, ptr %15, align 8
  %84 = load i32, ptr %16, align 4
  %85 = add i32 %84, 1
  store i32 %85, ptr %16, align 4
  %86 = load i32, ptr %16, align 4
  %87 = load ptr, ptr %11, align 8
  %88 = getelementptr inbounds nuw %struct.plain_decoding_data, ptr %87, i32 0, i32 1
  %89 = load i32, ptr %88, align 8
  %90 = icmp eq i32 %86, %89
  br i1 %90, label %91, label %126

91:                                               ; preds = %72
  %92 = load i32, ptr %14, align 4
  %93 = add i32 %92, 1
  store i32 %93, ptr %14, align 4
  %94 = load ptr, ptr %12, align 8
  %95 = icmp ne ptr %94, null
  br i1 %95, label %96, label %100

96:                                               ; preds = %91
  %97 = load ptr, ptr %7, align 8
  %98 = load ptr, ptr %97, align 8
  %99 = load ptr, ptr %12, align 8
  store ptr %98, ptr %99, align 8
  br label %100

100:                                              ; preds = %96, %91
  store i32 0, ptr %16, align 4
  %101 = load ptr, ptr %11, align 8
  %102 = getelementptr inbounds nuw %struct.plain_decoding_data, ptr %101, i32 0, i32 2
  %103 = load i16, ptr %102, align 4
  %104 = and i16 %103, 7
  %105 = zext i16 %104 to i32
  store i32 %105, ptr %18, align 4
  br label %106

106:                                              ; preds = %122, %100
  %107 = load i32, ptr %18, align 4
  %108 = icmp sgt i32 %107, 0
  br i1 %108, label %109, label %125

109:                                              ; preds = %106
  %110 = load i64, ptr %15, align 8
  %111 = load i32, ptr %18, align 4
  %112 = mul i32 %111, 8
  %113 = sub i32 %112, 8
  %114 = zext i32 %113 to i64
  %115 = lshr i64 %110, %114
  %116 = trunc i64 %115 to i8
  %117 = load ptr, ptr %9, align 8
  %118 = load ptr, ptr %117, align 8
  store i8 %116, ptr %118, align 1
  %119 = load ptr, ptr %9, align 8
  %120 = load ptr, ptr %119, align 8
  %121 = getelementptr i8, ptr %120, i64 1
  store ptr %121, ptr %119, align 8
  br label %122

122:                                              ; preds = %109
  %123 = load i32, ptr %18, align 4
  %124 = add i32 %123, -1
  store i32 %124, ptr %18, align 4
  br label %106, !llvm.loop !6

125:                                              ; preds = %106
  br label %126

126:                                              ; preds = %125, %72
  br label %127

127:                                              ; preds = %126, %56
  %128 = load ptr, ptr %7, align 8
  %129 = load ptr, ptr %128, align 8
  %130 = getelementptr i8, ptr %129, i64 1
  store ptr %130, ptr %128, align 8
  br label %37, !llvm.loop !8

131:                                              ; preds = %54
  br label %132

132:                                              ; preds = %131, %67
  %133 = load i32, ptr %16, align 4
  %134 = load ptr, ptr %11, align 8
  %135 = getelementptr inbounds nuw %struct.plain_decoding_data, ptr %134, i32 0, i32 2
  %136 = load i16, ptr %135, align 4
  %137 = lshr i16 %136, 3
  %138 = and i16 %137, 63
  %139 = zext i16 %138 to i32
  %140 = mul i32 %133, %139
  store i32 %140, ptr %18, align 4
  br label %141

141:                                              ; preds = %156, %132
  %142 = load i32, ptr %18, align 4
  %143 = icmp sge i32 %142, 8
  br i1 %143, label %144, label %159

144:                                              ; preds = %141
  %145 = load i64, ptr %15, align 8
  %146 = load i32, ptr %18, align 4
  %147 = sub i32 %146, 8
  %148 = zext i32 %147 to i64
  %149 = lshr i64 %145, %148
  %150 = trunc i64 %149 to i8
  %151 = load ptr, ptr %9, align 8
  %152 = load ptr, ptr %151, align 8
  store i8 %150, ptr %152, align 1
  %153 = load ptr, ptr %9, align 8
  %154 = load ptr, ptr %153, align 8
  %155 = getelementptr i8, ptr %154, i64 1
  store ptr %155, ptr %153, align 8
  br label %156

156:                                              ; preds = %144
  %157 = load i32, ptr %18, align 4
  %158 = sub i32 %157, 8
  store i32 %158, ptr %18, align 4
  br label %141, !llvm.loop !9

159:                                              ; preds = %141
  %160 = load i32, ptr %13, align 4
  %161 = load i32, ptr %14, align 4
  %162 = mul i32 %160, %161
  call void @llvm.lifetime.end.p0(i64 4, ptr %18) #15
  call void @llvm.lifetime.end.p0(i64 8, ptr %17) #15
  call void @llvm.lifetime.end.p0(i64 4, ptr %16) #15
  call void @llvm.lifetime.end.p0(i64 8, ptr %15) #15
  call void @llvm.lifetime.end.p0(i64 4, ptr %14) #15
  call void @llvm.lifetime.end.p0(i64 4, ptr %13) #15
  ret i32 %162
}

; Function Attrs: null_pointer_is_valid sspstrong uwtable
define hidden void @parse_data(ptr noundef %0, ptr noundef %1, i32 noundef %2) #0 {
  %4 = alloca ptr, align 8
  %5 = alloca ptr, align 8
  %6 = alloca i32, align 4
  %7 = alloca ptr, align 8
  %8 = alloca ptr, align 8
  %9 = alloca ptr, align 8
  %10 = alloca i32, align 4
  store ptr %0, ptr %4, align 8
  store ptr %1, ptr %5, align 8
  store i32 %2, ptr %6, align 4
  call void @llvm.lifetime.start.p0(i64 8, ptr %7) #15
  %11 = load ptr, ptr @packet_buf, align 8
  %12 = load i32, ptr @curr_offset, align 4
  %13 = zext i32 %12 to i64
  %14 = getelementptr i8, ptr %11, i64 %13
  store ptr %14, ptr %7, align 8
  call void @llvm.lifetime.start.p0(i64 8, ptr %8) #15
  %15 = load ptr, ptr @packet_buf, align 8
  %16 = load ptr, ptr @info_p, align 8
  %17 = getelementptr inbounds nuw %struct.text_import_info_t, ptr %16, i32 0, i32 19
  %18 = load i32, ptr %17, align 8
  %19 = zext i32 %18 to i64
  %20 = getelementptr i8, ptr %15, i64 %19
  store ptr %20, ptr %8, align 8
  call void @llvm.lifetime.start.p0(i64 8, ptr %9) #15
  %21 = load i32, ptr %6, align 4
  switch i32 %21, label %60 [
    i32 0, label %22
    i32 1, label %22
    i32 2, label %22
    i32 3, label %22
  ]

22:                                               ; preds = %3, %3, %3, %3
  %23 = load i32, ptr %6, align 4
  switch i32 %23, label %28 [
    i32 0, label %24
    i32 1, label %25
    i32 2, label %26
    i32 3, label %27
  ]

24:                                               ; preds = %22
  store ptr @hex_decode_info, ptr %9, align 8
  br label %29

25:                                               ; preds = %22
  store ptr @oct_decode_info, ptr %9, align 8
  br label %29

26:                                               ; preds = %22
  store ptr @bin_decode_info, ptr %9, align 8
  br label %29

27:                                               ; preds = %22
  store ptr @base64_decode_info, ptr %9, align 8
  br label %29

28:                                               ; preds = %22
  store i32 1, ptr %10, align 4
  br label %65

29:                                               ; preds = %27, %26, %25, %24
  %30 = load ptr, ptr @info_p, align 8
  %31 = getelementptr inbounds nuw %struct.text_import_info_t, ptr %30, i32 0, i32 20
  %32 = load i32, ptr %31, align 4
  %33 = add i32 %32, 1
  store i32 %33, ptr %31, align 4
  br label %34

34:                                               ; preds = %58, %29
  br label %35

35:                                               ; preds = %34
  %36 = load ptr, ptr %5, align 8
  %37 = load ptr, ptr %8, align 8
  %38 = load ptr, ptr %9, align 8
  %39 = call i32 @parse_plain_data(ptr noundef %4, ptr noundef %36, ptr noundef %7, ptr noundef %37, ptr noundef %38, ptr noundef null)
  %40 = load ptr, ptr %7, align 8
  %41 = load ptr, ptr @packet_buf, align 8
  %42 = ptrtoint ptr %40 to i64
  %43 = ptrtoint ptr %41 to i64
  %44 = sub i64 %42, %43
  %45 = trunc i64 %44 to i32
  store i32 %45, ptr @curr_offset, align 4
  %46 = load i32, ptr @curr_offset, align 4
  %47 = load ptr, ptr @info_p, align 8
  %48 = getelementptr inbounds nuw %struct.text_import_info_t, ptr %47, i32 0, i32 19
  %49 = load i32, ptr %48, align 8
  %50 = icmp eq i32 %46, %49
  br i1 %50, label %51, label %57

51:                                               ; preds = %35
  %52 = call i32 @write_current_packet(i1 noundef zeroext true)
  %53 = load ptr, ptr @packet_buf, align 8
  %54 = load i32, ptr @curr_offset, align 4
  %55 = zext i32 %54 to i64
  %56 = getelementptr i8, ptr %53, i64 %55
  store ptr %56, ptr %7, align 8
  br label %58

57:                                               ; preds = %35
  br label %59

58:                                               ; preds = %51
  br label %34

59:                                               ; preds = %57
  br label %64

60:                                               ; preds = %3
  br label %61

61:                                               ; preds = %60
  call void (ptr, i32, ptr, i64, ptr, ptr, ...) @ws_log_full(ptr noundef @.str, i32 noundef 6, ptr noundef @.str.1, i64 noundef 1060, ptr noundef @__func__.parse_data, ptr noundef @.str.2)
  br label %62

62:                                               ; preds = %61
  br label %63

63:                                               ; preds = %62
  store i32 1, ptr %10, align 4
  br label %65

64:                                               ; preds = %59
  store i32 0, ptr %10, align 4
  br label %65

65:                                               ; preds = %64, %63, %28
  call void @llvm.lifetime.end.p0(i64 8, ptr %9) #15
  call void @llvm.lifetime.end.p0(i64 8, ptr %8) #15
  call void @llvm.lifetime.end.p0(i64 8, ptr %7) #15
  %66 = load i32, ptr %10, align 4
  switch i32 %66, label %68 [
    i32 0, label %67
    i32 1, label %67
  ]

67:                                               ; preds = %65, %65
  ret void

68:                                               ; preds = %65
  unreachable
}