; Function Attrs: null_pointer_is_valid sspstrong uwtable
define hidden void @parse_data(ptr noundef %0, ptr noundef %1, i32 noundef %2) local_unnamed_addr #0 {
  %4 = ptrtoint ptr %1 to i64
  %5 = load ptr, ptr @packet_buf, align 8
  %6 = load ptr, ptr @info_p, align 8
  %7 = getelementptr inbounds nuw i8, ptr %6, i64 176
  %8 = load i32, ptr %7, align 8
  %9 = zext i32 %8 to i64
  %10 = getelementptr i8, ptr %5, i64 %9
  %switch = icmp ult i32 %2, 4
  br i1 %switch, label %switch.lookup, label %95

switch.lookup:                                    ; preds = %3
  %11 = load i32, ptr @curr_offset, align 4
  %12 = zext i32 %11 to i64
  %13 = getelementptr i8, ptr %5, i64 %12
  %14 = zext nneg i32 %2 to i64
  %switch.gep = getelementptr inbounds nuw [4 x ptr], ptr @switch.table.parse_data, i64 0, i64 %14
  %switch.load = load ptr, ptr %switch.gep, align 8
  %15 = getelementptr inbounds nuw i8, ptr %6, i64 180
  %16 = load i32, ptr %15, align 4
  %17 = add i32 %16, 1
  store i32 %17, ptr %15, align 4
  %18 = getelementptr inbounds nuw i8, ptr %switch.load, i64 12
  %19 = getelementptr inbounds nuw i8, ptr %switch.load, i64 14
  %20 = getelementptr inbounds nuw i8, ptr %switch.load, i64 8
  br label %21

21:                                               ; preds = %89, %switch.lookup
  %.010 = phi ptr [ %0, %switch.lookup ], [ %.111, %89 ]
  %.09 = phi ptr [ %13, %switch.lookup ], [ %94, %89 ]
  %.01047 = ptrtoint ptr %.010 to i64
  %22 = tail call i32 @ws_log_get_level()
  %.not.i = icmp eq i32 %22, 0
  br i1 %.not.i, label %26, label %23

23:                                               ; preds = %21
  %24 = sub i64 %4, %.01047
  %25 = tail call noalias ptr @wmem_strndup(ptr noundef null, ptr noundef %.010, i64 noundef %24)
  tail call void @wmem_free(ptr noundef null, ptr noundef %25)
  br label %26

26:                                               ; preds = %23, %21
  %27 = icmp ult ptr %.010, %1
  %.pre = load i16, ptr %18, align 4
  %.fr32 = freeze i16 %.pre
  br i1 %27, label %.lr.ph11.i, label %.critedge.i

.lr.ph11.i:                                       ; preds = %26
  %28 = and i16 %.fr32, 7
  %29 = zext nneg i16 %28 to i64
  %30 = lshr i16 %.fr32, 3
  %31 = and i16 %30, 63
  %32 = zext nneg i16 %31 to i64
  %.not20.i = icmp eq i16 %28, 0
  br i1 %.not20.i, label %.lr.ph11.i.split.us, label %.lr.ph11.i.split.preheader

.lr.ph11.i.split.preheader:                       ; preds = %.lr.ph11.i
  %scevgep = getelementptr i8, ptr %.010, i64 %4
  %33 = sub i64 0, %.01047
  %scevgep48 = getelementptr i8, ptr %scevgep, i64 %33
  br label %.lr.ph11.i.split

.lr.ph11.i.split.us:                              ; preds = %.lr.ph11.i
  %34 = getelementptr i8, ptr %.09, i64 %29
  %.not50.i.us = icmp ugt ptr %34, %10
  br i1 %.not50.i.us, label %.critedge.i, label %.lr.ph11.i.split.us.split.preheader

.lr.ph11.i.split.us.split.preheader:              ; preds = %.lr.ph11.i.split.us
  %scevgep49 = getelementptr i8, ptr %.010, i64 %4
  %35 = sub i64 0, %.01047
  %scevgep50 = getelementptr i8, ptr %scevgep49, i64 %35
  br label %.lr.ph11.i.split.us.split

.lr.ph11.i.split.us.split:                        ; preds = %.lr.ph11.i.split.us.split.preheader, %.loopexit.i.us
  %.212.us = phi ptr [ %47, %.loopexit.i.us ], [ %.010, %.lr.ph11.i.split.us.split.preheader ]
  %.0439.i.us = phi i32 [ %.144.i.us, %.loopexit.i.us ], [ 0, %.lr.ph11.i.split.us.split.preheader ]
  %.0458.i.us = phi i64 [ %.146.i.us, %.loopexit.i.us ], [ 0, %.lr.ph11.i.split.us.split.preheader ]
  %36 = load i8, ptr %.212.us, align 1
  %37 = zext i8 %36 to i64
  %38 = getelementptr [256 x i8], ptr %19, i64 0, i64 %37
  %39 = load i8, ptr %38, align 1
  switch i8 %39, label %40 [
    i8 -1, label %.split.us
    i8 -2, label %.loopexit.i.us
  ]

40:                                               ; preds = %.lr.ph11.i.split.us.split
  %41 = sext i8 %39 to i64
  %42 = shl i64 %.0458.i.us, %32
  %43 = or i64 %42, %41
  %44 = add i32 %.0439.i.us, 1
  %45 = load i32, ptr %20, align 8
  %46 = icmp eq i32 %44, %45
  %spec.select = select i1 %46, i32 0, i32 %44
  br label %.loopexit.i.us

.loopexit.i.us:                                   ; preds = %40, %.lr.ph11.i.split.us.split
  %.146.i.us = phi i64 [ %.0458.i.us, %.lr.ph11.i.split.us.split ], [ %43, %40 ]
  %.144.i.us = phi i32 [ %.0439.i.us, %.lr.ph11.i.split.us.split ], [ %spec.select, %40 ]
  %47 = getelementptr i8, ptr %.212.us, i64 1
  %exitcond51.not = icmp eq ptr %47, %scevgep50
  br i1 %exitcond51.not, label %.critedge.i, label %.lr.ph11.i.split.us.split, !llvm.loop !6

.lr.ph11.i.split:                                 ; preds = %.lr.ph11.i.split.preheader, %.loopexit.i
  %.212 = phi ptr [ %69, %.loopexit.i ], [ %.010, %.lr.ph11.i.split.preheader ]
  %.3 = phi ptr [ %.4, %.loopexit.i ], [ %.09, %.lr.ph11.i.split.preheader ]
  %.0439.i = phi i32 [ %.144.i, %.loopexit.i ], [ 0, %.lr.ph11.i.split.preheader ]
  %.0458.i = phi i64 [ %.146.i, %.loopexit.i ], [ 0, %.lr.ph11.i.split.preheader ]
  %48 = getelementptr i8, ptr %.3, i64 %29
  %.not50.i = icmp ugt ptr %48, %10
  br i1 %.not50.i, label %.critedge.i, label %49

49:                                               ; preds = %.lr.ph11.i.split
  %50 = load i8, ptr %.212, align 1
  %51 = zext i8 %50 to i64
  %52 = getelementptr [256 x i8], ptr %19, i64 0, i64 %51
  %53 = load i8, ptr %52, align 1
  switch i8 %53, label %55 [
    i8 -1, label %.split.us
    i8 -2, label %.loopexit.i
  ]

.split.us:                                        ; preds = %49, %.lr.ph11.i.split.us.split
  %.us-phi22 = phi ptr [ %.212.us, %.lr.ph11.i.split.us.split ], [ %.212, %49 ]
  %.us-phi23 = phi ptr [ %.09, %.lr.ph11.i.split.us.split ], [ %.3, %49 ]
  %.us-phi24 = phi i32 [ %.0439.i.us, %.lr.ph11.i.split.us.split ], [ %.0439.i, %49 ]
  %.us-phi25 = phi i64 [ %.0458.i.us, %.lr.ph11.i.split.us.split ], [ %.0458.i, %49 ]
  %.us-phi26 = phi i8 [ %36, %.lr.ph11.i.split.us.split ], [ %50, %49 ]
  %54 = zext i8 %.us-phi26 to i32
  tail call void (ptr, ...) @report_failure(ptr noundef nonnull @.str.24, i32 noundef %54)
  br label %.critedge.i

55:                                               ; preds = %49
  %56 = sext i8 %53 to i64
  %57 = shl i64 %.0458.i, %32
  %58 = or i64 %57, %56
  %59 = add i32 %.0439.i, 1
  %60 = load i32, ptr %20, align 8
  %61 = icmp eq i32 %59, %60
  br i1 %61, label %.lr.ph.i, label %.loopexit.i

.lr.ph.i:                                         ; preds = %55, %.lr.ph.i
  %.5 = phi ptr [ %67, %.lr.ph.i ], [ %.3, %55 ]
  %indvars.iv.i = phi i64 [ %indvars.iv.next.i, %.lr.ph.i ], [ %29, %55 ]
  %62 = shl i64 %indvars.iv.i, 3
  %63 = add nsw i64 %62, 4294967288
  %64 = and i64 %63, 4294967288
  %65 = lshr i64 %58, %64
  %66 = trunc i64 %65 to i8
  store i8 %66, ptr %.5, align 1
  %67 = getelementptr i8, ptr %.5, i64 1
  %indvars.iv.next.i = add nsw i64 %indvars.iv.i, -1
  %68 = icmp samesign ugt i64 %indvars.iv.i, 1
  br i1 %68, label %.lr.ph.i, label %.loopexit.i, !llvm.loop !8

.loopexit.i:                                      ; preds = %.lr.ph.i, %55, %49
  %.4 = phi ptr [ %.3, %55 ], [ %.3, %49 ], [ %67, %.lr.ph.i ]
  %.146.i = phi i64 [ %58, %55 ], [ %.0458.i, %49 ], [ %58, %.lr.ph.i ]
  %.144.i = phi i32 [ %59, %55 ], [ %.0439.i, %49 ], [ 0, %.lr.ph.i ]
  %69 = getelementptr i8, ptr %.212, i64 1
  %exitcond.not = icmp eq ptr %69, %scevgep48
  br i1 %exitcond.not, label %.critedge.i, label %.lr.ph11.i.split, !llvm.loop !6

.critedge.i:                                      ; preds = %.lr.ph11.i.split, %.loopexit.i, %.loopexit.i.us, %.lr.ph11.i.split.us, %.split.us, %26
  %.111 = phi ptr [ %.us-phi22, %.split.us ], [ %.010, %26 ], [ %.010, %.lr.ph11.i.split.us ], [ %scevgep50, %.loopexit.i.us ], [ %scevgep48, %.loopexit.i ], [ %.212, %.lr.ph11.i.split ]
  %.1 = phi ptr [ %.us-phi23, %.split.us ], [ %.09, %26 ], [ %.09, %.lr.ph11.i.split.us ], [ %.09, %.loopexit.i.us ], [ %.4, %.loopexit.i ], [ %.3, %.lr.ph11.i.split ]
  %.0456.i = phi i64 [ %.us-phi25, %.split.us ], [ 0, %26 ], [ 0, %.lr.ph11.i.split.us ], [ %.146.i.us, %.loopexit.i.us ], [ %.146.i, %.loopexit.i ], [ %.0458.i, %.lr.ph11.i.split ]
  %.0434.i = phi i32 [ %.us-phi24, %.split.us ], [ 0, %26 ], [ 0, %.lr.ph11.i.split.us ], [ %.144.i.us, %.loopexit.i.us ], [ %.144.i, %.loopexit.i ], [ %.0439.i, %.lr.ph11.i.split ]
  %70 = lshr i16 %.fr32, 3
  %71 = and i16 %70, 63
  %72 = zext nneg i16 %71 to i32
  %73 = mul i32 %.0434.i, %72
  %74 = icmp sgt i32 %73, 7
  br i1 %74, label %.lr.ph19.preheader.i, label %parse_plain_data.exit

.lr.ph19.preheader.i:                             ; preds = %.critedge.i
  %75 = zext nneg i32 %73 to i64
  br label %.lr.ph19.i

.lr.ph19.i:                                       ; preds = %.lr.ph19.i, %.lr.ph19.preheader.i
  %.2 = phi ptr [ %.1, %.lr.ph19.preheader.i ], [ %78, %.lr.ph19.i ]
  %indvars.iv25.i = phi i64 [ %75, %.lr.ph19.preheader.i ], [ %indvars.iv.next26.i, %.lr.ph19.i ]
  %indvars.iv.next26.i = add nsw i64 %indvars.iv25.i, -8
  %76 = lshr i64 %.0456.i, %indvars.iv.next26.i
  %77 = trunc i64 %76 to i8
  store i8 %77, ptr %.2, align 1
  %78 = getelementptr i8, ptr %.2, i64 1
  %79 = icmp samesign ugt i64 %indvars.iv25.i, 15
  br i1 %79, label %.lr.ph19.i, label %parse_plain_data.exit, !llvm.loop !9

parse_plain_data.exit:                            ; preds = %.lr.ph19.i, %.critedge.i
  %.6 = phi ptr [ %.1, %.critedge.i ], [ %78, %.lr.ph19.i ]
  %80 = load ptr, ptr @packet_buf, align 8
  %81 = ptrtoint ptr %.6 to i64
  %82 = ptrtoint ptr %80 to i64
  %83 = sub i64 %81, %82
  %84 = trunc i64 %83 to i32
  store i32 %84, ptr @curr_offset, align 4
  %85 = load ptr, ptr @info_p, align 8
  %86 = getelementptr inbounds nuw i8, ptr %85, i64 176
  %87 = load i32, ptr %86, align 8
  %88 = icmp eq i32 %87, %84
  br i1 %88, label %89, label %.loopexit

89:                                               ; preds = %parse_plain_data.exit
  %90 = tail call fastcc i32 @write_current_packet(i1 noundef zeroext true)
  %91 = load ptr, ptr @packet_buf, align 8
  %92 = load i32, ptr @curr_offset, align 4
  %93 = zext i32 %92 to i64
  %94 = getelementptr i8, ptr %91, i64 %93
  br label %21

95:                                               ; preds = %3
  tail call void (ptr, i32, ptr, i64, ptr, ptr, ...) @ws_log_full(ptr noundef nonnull @.str, i32 noundef 6, ptr noundef nonnull @.str.1, i64 noundef 1060, ptr noundef nonnull @__func__.parse_data, ptr noundef nonnull @.str.2)
  br label %.loopexit

.loopexit:                                        ; preds = %parse_plain_data.exit, %95
  ret void
}